target datalayout = "e-m:e-p270:32:32-p271:32:32-p272:64:64-i64:64-i128:128-f80:128-n8:16:32:64-S128"
target triple = "x86_64-pc-linux-gnu"

%struct.pmix_object_t = type { %union.pthread_mutex_t, ptr, i32, %struct.pmix_tma }
%union.pthread_mutex_t = type { %struct.__pthread_mutex_s }
%struct.__pthread_mutex_s = type { i32, i32, i32, i32, i32, i16, i16, %struct.__pthread_internal_list }
%struct.__pthread_internal_list = type { ptr, ptr }
%struct.pmix_tma = type { ptr, ptr, ptr, ptr, ptr, ptr, ptr, ptr }
%struct.prte_pmix_lock_t = type { %struct.pmix_mutex_t, %union.pthread_cond_t, i8, i32, ptr }
%struct.pmix_mutex_t = type { %struct.pmix_object_t, %union.pthread_mutex_t }
%union.pthread_cond_t = type { %struct.__pthread_cond_s }
%struct.__pthread_cond_s = type { %union.__atomic_wide_counter, %union.__atomic_wide_counter, [2 x i32], [2 x i32], i32, i32, [2 x i32] }
%union.__atomic_wide_counter = type { i64 }

; Function Attrs: inlinehint nounwind uwtable
define internal void @pmix_mutex_unlock(ptr noundef %0) #2 {
  %2 = alloca ptr, align 8
  store ptr %0, ptr %2, align 8, !tbaa !149
  %3 = load ptr, ptr %2, align 8, !tbaa !149
  %4 = getelementptr inbounds nuw %struct.pmix_mutex_t, ptr %3, i32 0, i32 1
  %5 = call i32 @pthread_mutex_unlock(ptr noundef %4) #13
  ret void
}

; Function Attrs: inlinehint nounwind uwtable
define internal void @pmix_atomic_wmb() #2 {
  fence release
  ret void
}

; Function Attrs: inlinehint nounwind uwtable
define internal void @pmix_mutex_lock(ptr noundef %0) #2 {
  %2 = alloca ptr, align 8
  store ptr %0, ptr %2, align 8, !tbaa !149
  %3 = load ptr, ptr %2, align 8, !tbaa !149
  %4 = getelementptr inbounds nuw %struct.pmix_mutex_t, ptr %3, i32 0, i32 1
  %5 = call i32 @pthread_mutex_lock(ptr noundef %4) #13
  ret void
}

; Function Attrs: nounwind uwtable
define internal void @opcbfunc(i32 noundef %0, ptr noundef %1) #0 {
  %3 = alloca i32, align 4
  %4 = alloca ptr, align 8
  %5 = alloca ptr, align 8
  store i32 %0, ptr %3, align 4, !tbaa !7
  store ptr %1, ptr %4, align 8, !tbaa !3
  call void @llvm.lifetime.start.p0(i64 8, ptr %5) #13
  %6 = load ptr, ptr %4, align 8, !tbaa !3
  store ptr %6, ptr %5, align 8, !tbaa !3
  br label %7

7:                                                ; preds = %2
  %8 = load ptr, ptr %5, align 8, !tbaa !3
  %9 = getelementptr inbounds nuw %struct.prte_pmix_lock_t, ptr %8, i32 0, i32 0
  call void @pmix_mutex_lock(ptr noundef %9)
  %10 = load ptr, ptr %5, align 8, !tbaa !3
  %11 = getelementptr inbounds nuw %struct.prte_pmix_lock_t, ptr %10, i32 0, i32 2
  store volatile i8 0, ptr %11, align 8, !tbaa !132
  call void @pmix_atomic_wmb()
  %12 = load ptr, ptr %5, align 8, !tbaa !3
  %13 = getelementptr inbounds nuw %struct.prte_pmix_lock_t, ptr %12, i32 0, i32 1
  %14 = call i32 @pthread_cond_broadcast(ptr noundef %13) #13
  %15 = load ptr, ptr %5, align 8, !tbaa !3
  %16 = getelementptr inbounds nuw %struct.prte_pmix_lock_t, ptr %15, i32 0, i32 0
  call void @pmix_mutex_unlock(ptr noundef %16)
  br label %17

17:                                               ; preds = %7
  br label %18

18:                                               ; preds = %17
  call void @llvm.lifetime.end.p0(i64 8, ptr %5) #13
  ret void
}