; Function Attrs: nounwind uwtable
define internal void @opcbfunc(i32 %0, ptr noundef %1) #0 {
  %3 = getelementptr inbounds nuw i8, ptr %1, i64 120
  %4 = tail call i32 @pthread_mutex_lock(ptr noundef nonnull %3) #14
  %5 = getelementptr inbounds nuw i8, ptr %1, i64 208
  store volatile i8 0, ptr %5, align 8, !tbaa !110
  fence release
  %6 = getelementptr inbounds nuw i8, ptr %1, i64 160
  %7 = tail call i32 @pthread_cond_broadcast(ptr noundef nonnull %6) #14
  %8 = tail call i32 @pthread_mutex_unlock(ptr noundef nonnull %3) #14
  ret void
}